; Function Attrs: mustprogress ssp uwtable
define hidden void @_ZN6open3d4core30pybind_core_kernel_definitionsERN8pybind117module_E(ptr noundef nonnull readonly align 8 captures(none) dereferenceable(8) %0) local_unnamed_addr #6 personality ptr @__gxx_personality_v0 {
  %2 = alloca %"class.pybind11::module_", align 8
  %3 = alloca %"class.pybind11::detail::accessor", align 8
  %4 = alloca ptr, align 8
  call void @llvm.lifetime.start.p0(i64 8, ptr nonnull %2) #30
  call void @llvm.lifetime.start.p0(i64 32, ptr nonnull %3) #30
  tail call void @llvm.experimental.noalias.scope.decl(metadata !139)
  %.sroa.0.0.copyload.i = load ptr, ptr %0, align 8, !noalias !139
  %5 = getelementptr inbounds nuw i8, ptr %3, i64 8
  store ptr %.sroa.0.0.copyload.i, ptr %5, align 8, !alias.scope !139
  %6 = getelementptr inbounds nuw i8, ptr %3, i64 16
  store ptr @.str, ptr %6, align 8, !tbaa !134, !alias.scope !139
  %7 = getelementptr inbounds nuw i8, ptr %3, i64 24
  store ptr null, ptr %7, align 8, !tbaa !119, !alias.scope !139
  invoke void @_ZN8pybind117module_C2INS_6detail17accessor_policies8str_attrEEERKNS2_8accessorIT_EE(ptr noundef nonnull align 8 dereferenceable(8) %2, ptr noundef nonnull align 8 dereferenceable(32) %3)
          to label %8 unwind label %33

8:                                                ; preds = %1
  %9 = load ptr, ptr %7, align 8, !tbaa !119
  %.not.i.i.i.i = icmp eq ptr %9, null
  br i1 %.not.i.i.i.i, label %_ZN8pybind116detail8accessorINS0_17accessor_policies8str_attrEED2Ev.exit, label %10

10:                                               ; preds = %8
  %11 = load i64, ptr %9, align 8, !tbaa !118
  %12 = and i64 %11, 2147483648
  %.not2.i.i.i.i = icmp eq i64 %12, 0
  br i1 %.not2.i.i.i.i, label %13, label %_ZN8pybind116detail8accessorINS0_17accessor_policies8str_attrEED2Ev.exit

13:                                               ; preds = %10
  %14 = add nsw i64 %11, -1
  store i64 %14, ptr %9, align 8, !tbaa !118
  %15 = icmp eq i64 %14, 0
  br i1 %15, label %16, label %_ZN8pybind116detail8accessorINS0_17accessor_policies8str_attrEED2Ev.exit

16:                                               ; preds = %13
  invoke void @_Py_Dealloc(ptr noundef nonnull %9)
          to label %_ZN8pybind116detail8accessorINS0_17accessor_policies8str_attrEED2Ev.exit unwind label %17

17:                                               ; preds = %16
  %18 = landingpad { ptr, i32 }
          catch ptr null
  %19 = extractvalue { ptr, i32 } %18, 0
  call void @__clang_call_terminate(ptr %19) #31
  unreachable

_ZN8pybind116detail8accessorINS0_17accessor_policies8str_attrEED2Ev.exit: ; preds = %8, %10, %13, %16
  call void @llvm.lifetime.end.p0(i64 32, ptr nonnull %3) #30
  call void @llvm.lifetime.start.p0(i64 8, ptr nonnull %4) #30
  store ptr @_ZN6open3d4core6kernel21TestLinalgIntegrationEv, ptr %4, align 8, !tbaa !142
  %20 = invoke noundef nonnull align 8 dereferenceable(8) ptr @_ZN8pybind117module_3defIPFvvEJEEERS0_PKcOT_DpRKT0_(ptr noundef nonnull align 8 dereferenceable(8) %2, ptr noundef nonnull @.str.6, ptr noundef nonnull align 8 dereferenceable(8) %4)
          to label %21 unwind label %35

21:                                               ; preds = %_ZN8pybind116detail8accessorINS0_17accessor_policies8str_attrEED2Ev.exit
  call void @llvm.lifetime.end.p0(i64 8, ptr nonnull %4) #30
  %22 = load ptr, ptr %2, align 8, !tbaa !119
  %.not.i.i.i = icmp eq ptr %22, null
  br i1 %.not.i.i.i, label %_ZN8pybind116objectD2Ev.exit, label %23

23:                                               ; preds = %21
  %24 = load i64, ptr %22, align 8, !tbaa !118
  %25 = and i64 %24, 2147483648
  %.not2.i.i.i = icmp eq i64 %25, 0
  br i1 %.not2.i.i.i, label %26, label %_ZN8pybind116objectD2Ev.exit

26:                                               ; preds = %23
  %27 = add nsw i64 %24, -1
  store i64 %27, ptr %22, align 8, !tbaa !118
  %28 = icmp eq i64 %27, 0
  br i1 %28, label %29, label %_ZN8pybind116objectD2Ev.exit

29:                                               ; preds = %26
  invoke void @_Py_Dealloc(ptr noundef nonnull %22)
          to label %_ZN8pybind116objectD2Ev.exit unwind label %30

30:                                               ; preds = %29
  %31 = landingpad { ptr, i32 }
          catch ptr null
  %32 = extractvalue { ptr, i32 } %31, 0
  call void @__clang_call_terminate(ptr %32) #31
  unreachable

_ZN8pybind116objectD2Ev.exit:                     ; preds = %21, %23, %26, %29
  call void @llvm.lifetime.end.p0(i64 8, ptr nonnull %2) #30
  ret void

33:                                               ; preds = %1
  %34 = landingpad { ptr, i32 }
          cleanup
  call void @_ZN8pybind116detail8accessorINS0_17accessor_policies8str_attrEED2Ev(ptr noundef nonnull align 8 dereferenceable(32) %3) #30
  call void @llvm.lifetime.end.p0(i64 32, ptr nonnull %3) #30
  br label %37

35:                                               ; preds = %_ZN8pybind116detail8accessorINS0_17accessor_policies8str_attrEED2Ev.exit
  %36 = landingpad { ptr, i32 }
          cleanup
  call void @llvm.lifetime.end.p0(i64 8, ptr nonnull %4) #30
  call void @_ZN8pybind116objectD2Ev(ptr noundef nonnull align 8 dereferenceable(8) %2) #30
  br label %37

37:                                               ; preds = %35, %33
  %.pn = phi { ptr, i32 } [ %36, %35 ], [ %34, %33 ]
  call void @llvm.lifetime.end.p0(i64 8, ptr nonnull %2) #30
  resume { ptr, i32 } %.pn
}